target datalayout = "e-m:e-p270:32:32-p271:32:32-p272:64:64-i64:64-i128:128-f80:128-n8:16:32:64-S128"
target triple = "x86_64-pc-linux-gnu"

%"class.tbb::detail::r1::market" = type { %"class.tbb::detail::r1::permit_manager", %"class.tbb::detail::d1::rw_mutex", i32, i32, [3 x i32], i32, [3 x %"class.std::vector"] }
%"class.tbb::detail::r1::permit_manager" = type { ptr, ptr }
%"class.tbb::detail::d1::rw_mutex" = type { %"struct.std::atomic" }
%"struct.std::atomic" = type { %"struct.std::__atomic_base" }
%"struct.std::__atomic_base" = type { i64 }
%"class.std::vector" = type { %"struct.std::_Vector_base" }
%"struct.std::_Vector_base" = type { %"struct.std::_Vector_base<tbb::detail::r1::pm_client *, tbb::detail::d1::tbb_allocator<tbb::detail::r1::pm_client *>>::_Vector_impl" }
%"struct.std::_Vector_base<tbb::detail::r1::pm_client *, tbb::detail::d1::tbb_allocator<tbb::detail::r1::pm_client *>>::_Vector_impl" = type { %"struct.std::_Vector_base<tbb::detail::r1::pm_client *, tbb::detail::d1::tbb_allocator<tbb::detail::r1::pm_client *>>::_Vector_impl_data" }
%"struct.std::_Vector_base<tbb::detail::r1::pm_client *, tbb::detail::d1::tbb_allocator<tbb::detail::r1::pm_client *>>::_Vector_impl_data" = type { ptr, ptr, ptr }

@.str = private unnamed_addr constant [14 x i8] c"tbb::rw_mutex\00", align 1
@.str.1 = private unnamed_addr constant [1 x i8] zeroinitializer, align 1

; Function Attrs: mustprogress nounwind sspstrong uwtable
define linkonce_odr void @_ZNSt12_Vector_baseIPN3tbb6detail2r19pm_clientENS1_2d113tbb_allocatorIS4_EEE17_Vector_impl_dataC2Ev(ptr noundef nonnull align 8 dereferenceable(24) %0) unnamed_addr #0 comdat align 2 {
  %2 = alloca ptr, align 8
  store ptr %0, ptr %2, align 8, !tbaa !86
  %3 = load ptr, ptr %2, align 8
  %4 = getelementptr inbounds nuw %"struct.std::_Vector_base<tbb::detail::r1::pm_client *, tbb::detail::d1::tbb_allocator<tbb::detail::r1::pm_client *>>::_Vector_impl_data", ptr %3, i32 0, i32 0
  store ptr null, ptr %4, align 8, !tbaa !88
  %5 = getelementptr inbounds nuw %"struct.std::_Vector_base<tbb::detail::r1::pm_client *, tbb::detail::d1::tbb_allocator<tbb::detail::r1::pm_client *>>::_Vector_impl_data", ptr %3, i32 0, i32 1
  store ptr null, ptr %5, align 8, !tbaa !51
  %6 = getelementptr inbounds nuw %"struct.std::_Vector_base<tbb::detail::r1::pm_client *, tbb::detail::d1::tbb_allocator<tbb::detail::r1::pm_client *>>::_Vector_impl_data", ptr %3, i32 0, i32 2
  store ptr null, ptr %6, align 8, !tbaa !53
  ret void
}

; Function Attrs: mustprogress nounwind sspstrong uwtable
define linkonce_odr void @_ZNSt12_Vector_baseIPN3tbb6detail2r19pm_clientENS1_2d113tbb_allocatorIS4_EEE12_Vector_implC2Ev(ptr noundef nonnull align 8 dereferenceable(24) %0) unnamed_addr #0 comdat align 2 {
  %2 = alloca ptr, align 8
  store ptr %0, ptr %2, align 8, !tbaa !84
  %3 = load ptr, ptr %2, align 8
  call void @_ZNSt12_Vector_baseIPN3tbb6detail2r19pm_clientENS1_2d113tbb_allocatorIS4_EEE17_Vector_impl_dataC2Ev(ptr noundef nonnull align 8 dereferenceable(24) %3) #11
  ret void
}

; Function Attrs: mustprogress nounwind sspstrong uwtable
define linkonce_odr void @_ZNSt13__atomic_baseIlEC2El(ptr noundef nonnull align 8 dereferenceable(8) %0, i64 noundef %1) unnamed_addr #0 comdat align 2 {
  %3 = alloca ptr, align 8
  %4 = alloca i64, align 8
  store ptr %0, ptr %3, align 8, !tbaa !79
  store i64 %1, ptr %4, align 8, !tbaa !75
  %5 = load ptr, ptr %3, align 8
  %6 = getelementptr inbounds nuw %"struct.std::__atomic_base", ptr %5, i32 0, i32 0
  %7 = load i64, ptr %4, align 8, !tbaa !75
  store i64 %7, ptr %6, align 8, !tbaa !81
  ret void
}

; Function Attrs: mustprogress nounwind sspstrong uwtable
define linkonce_odr void @_ZNSt12_Vector_baseIPN3tbb6detail2r19pm_clientENS1_2d113tbb_allocatorIS4_EEEC2Ev(ptr noundef nonnull align 8 dereferenceable(24) %0) unnamed_addr #0 comdat align 2 {
  %2 = alloca ptr, align 8
  store ptr %0, ptr %2, align 8, !tbaa !82
  %3 = load ptr, ptr %2, align 8
  %4 = getelementptr inbounds nuw %"struct.std::_Vector_base", ptr %3, i32 0, i32 0
  call void @_ZNSt12_Vector_baseIPN3tbb6detail2r19pm_clientENS1_2d113tbb_allocatorIS4_EEE12_Vector_implC2Ev(ptr noundef nonnull align 8 dereferenceable(24) %4) #11
  ret void
}

; Function Attrs: noinline noreturn nounwind sspstrong uwtable
define linkonce_odr hidden void @__clang_call_terminate(ptr noundef %0) #7 comdat {
  %2 = call ptr @__cxa_begin_catch(ptr %0) #11
  call void @_ZSt9terminatev() #14
  unreachable
}

; Function Attrs: inlinehint mustprogress nounwind sspstrong uwtable
define linkonce_odr void @_ZN3tbb6detail2d115create_itt_syncEPvPKcS4_(ptr noundef %0, ptr noundef %1, ptr noundef %2) #1 comdat {
  %4 = alloca ptr, align 8
  %5 = alloca ptr, align 8
  %6 = alloca ptr, align 8
  store ptr %0, ptr %4, align 8, !tbaa !76
  store ptr %1, ptr %5, align 8, !tbaa !77
  store ptr %2, ptr %6, align 8, !tbaa !77
  ret void
}

; Function Attrs: mustprogress nounwind sspstrong uwtable
define linkonce_odr void @_ZNSt6atomicIlEC2El(ptr noundef nonnull align 8 dereferenceable(8) %0, i64 noundef %1) unnamed_addr #0 comdat align 2 {
  %3 = alloca ptr, align 8
  %4 = alloca i64, align 8
  store ptr %0, ptr %3, align 8, !tbaa !73
  store i64 %1, ptr %4, align 8, !tbaa !75
  %5 = load ptr, ptr %3, align 8
  %6 = load i64, ptr %4, align 8, !tbaa !75
  call void @_ZNSt13__atomic_baseIlEC2El(ptr noundef nonnull align 8 dereferenceable(8) %5, i64 noundef %6) #11
  ret void
}

; Function Attrs: mustprogress nounwind sspstrong uwtable
define linkonce_odr void @_ZNSt6vectorIPN3tbb6detail2r19pm_clientENS1_2d113tbb_allocatorIS4_EEEC2Ev(ptr noundef nonnull align 8 dereferenceable(24) %0) unnamed_addr #0 comdat align 2 {
  %2 = alloca ptr, align 8
  store ptr %0, ptr %2, align 8, !tbaa !27
  %3 = load ptr, ptr %2, align 8
  call void @_ZNSt12_Vector_baseIPN3tbb6detail2r19pm_clientENS1_2d113tbb_allocatorIS4_EEEC2Ev(ptr noundef nonnull align 8 dereferenceable(24) %3) #11
  ret void
}

; Function Attrs: mustprogress nounwind sspstrong uwtable
define linkonce_odr void @_ZN3tbb6detail2d18rw_mutexC2Ev(ptr noundef nonnull align 8 dereferenceable(8) %0) unnamed_addr #0 comdat align 2 personality ptr @__gxx_personality_v0 {
  %2 = alloca ptr, align 8
  store ptr %0, ptr %2, align 8, !tbaa !25
  %3 = load ptr, ptr %2, align 8
  %4 = getelementptr inbounds nuw %"class.tbb::detail::d1::rw_mutex", ptr %3, i32 0, i32 0
  call void @_ZNSt6atomicIlEC2El(ptr noundef nonnull align 8 dereferenceable(8) %4, i64 noundef 0) #11
  invoke void @_ZN3tbb6detail2d115create_itt_syncEPvPKcS4_(ptr noundef %3, ptr noundef @.str, ptr noundef @.str.1)
          to label %5 unwind label %6

5:                                                ; preds = %1
  ret void

6:                                                ; preds = %1
  %7 = landingpad { ptr, i32 }
          catch ptr null
  %8 = extractvalue { ptr, i32 } %7, 0
  call void @__clang_call_terminate(ptr %8) #14
  unreachable
}

; Function Attrs: inlinehint mustprogress nounwind sspstrong uwtable
define linkonce_odr void @_ZN3tbb6detail2r114permit_managerC2Ev(ptr noundef nonnull align 8 dereferenceable(16) %0) unnamed_addr #1 comdat align 2 {
  %2 = alloca ptr, align 8
  store ptr %0, ptr %2, align 8, !tbaa !22
  %3 = load ptr, ptr %2, align 8
  store ptr getelementptr inbounds inrange(-16, 56) ({ [9 x ptr] }, ptr @_ZTVN3tbb6detail2r114permit_managerE, i32 0, i32 0, i32 2), ptr %3, align 8, !tbaa !10
  %4 = getelementptr inbounds nuw %"class.tbb::detail::r1::permit_manager", ptr %3, i32 0, i32 1
  store ptr null, ptr %4, align 8, !tbaa !24
  ret void
}

; Function Attrs: mustprogress nounwind sspstrong uwtable
define void @_ZN3tbb6detail2r16marketC2Ej(ptr noundef nonnull align 8 dereferenceable(120) %0, i32 noundef %1) unnamed_addr #0 align 2 {
  %3 = alloca ptr, align 8
  %4 = alloca i32, align 4
  store ptr %0, ptr %3, align 8, !tbaa !3
  store i32 %1, ptr %4, align 4, !tbaa !8
  %5 = load ptr, ptr %3, align 8
  call void @_ZN3tbb6detail2r114permit_managerC2Ev(ptr noundef nonnull align 8 dereferenceable(16) %5) #11
  store ptr getelementptr inbounds inrange(-16, 56) ({ [9 x ptr] }, ptr @_ZTVN3tbb6detail2r16marketE, i32 0, i32 0, i32 2), ptr %5, align 8, !tbaa !10
  %6 = getelementptr inbounds nuw %"class.tbb::detail::r1::market", ptr %5, i32 0, i32 1
  call void @_ZN3tbb6detail2d18rw_mutexC2Ev(ptr noundef nonnull align 8 dereferenceable(8) %6) #11
  %7 = getelementptr inbounds nuw %"class.tbb::detail::r1::market", ptr %5, i32 0, i32 2
  %8 = load i32, ptr %4, align 4, !tbaa !8
  store i32 %8, ptr %7, align 8, !tbaa !12
  %9 = getelementptr inbounds nuw %"class.tbb::detail::r1::market", ptr %5, i32 0, i32 3
  store i32 0, ptr %9, align 4, !tbaa !20
  %10 = getelementptr inbounds nuw %"class.tbb::detail::r1::market", ptr %5, i32 0, i32 4
  store i32 0, ptr %10, align 4, !tbaa !8
  %11 = getelementptr inbounds i32, ptr %10, i64 1
  %12 = getelementptr inbounds i32, ptr %10, i64 3
  br label %13

13:                                               ; preds = %13, %2
  %14 = phi ptr [ %11, %2 ], [ %15, %13 ]
  store i32 0, ptr %14, align 4, !tbaa !8
  %15 = getelementptr inbounds i32, ptr %14, i64 1
  %16 = icmp eq ptr %15, %12
  br i1 %16, label %17, label %13

17:                                               ; preds = %13
  %18 = getelementptr inbounds nuw %"class.tbb::detail::r1::market", ptr %5, i32 0, i32 5
  store i32 0, ptr %18, align 4, !tbaa !21
  %19 = getelementptr inbounds nuw %"class.tbb::detail::r1::market", ptr %5, i32 0, i32 6
  %20 = getelementptr inbounds [3 x %"class.std::vector"], ptr %19, i32 0, i32 0
  %21 = getelementptr inbounds %"class.std::vector", ptr %20, i64 3
  br label %22

22:                                               ; preds = %22, %17
  %23 = phi ptr [ %20, %17 ], [ %24, %22 ]
  call void @_ZNSt6vectorIPN3tbb6detail2r19pm_clientENS1_2d113tbb_allocatorIS4_EEEC2Ev(ptr noundef nonnull align 8 dereferenceable(24) %23) #11
  %24 = getelementptr inbounds %"class.std::vector", ptr %23, i64 1
  %25 = icmp eq ptr %24, %21
  br i1 %25, label %26, label %22

26:                                               ; preds = %22
  ret void
}