; Function Attrs: mustprogress nofree norecurse nosync nounwind sspstrong willreturn memory(argmem: write) uwtable
define void @_ZN3tbb6detail2r16marketC2Ej(ptr noundef nonnull writeonly align 8 captures(none) dereferenceable(120) initializes((0, 120)) %0, i32 noundef %1) unnamed_addr #0 align 2 personality ptr @__gxx_personality_v0 {
  %3 = getelementptr inbounds nuw i8, ptr %0, i64 8
  store ptr null, ptr %3, align 8, !tbaa !3
  store ptr getelementptr inbounds nuw inrange(-16, 56) (i8, ptr @_ZTVN3tbb6detail2r16marketE, i64 16), ptr %0, align 8, !tbaa !9
  %4 = getelementptr inbounds nuw i8, ptr %0, i64 16
  store i64 0, ptr %4, align 8, !tbaa !11
  %5 = getelementptr inbounds nuw i8, ptr %0, i64 24
  store i32 %1, ptr %5, align 8, !tbaa !14
  %6 = getelementptr inbounds nuw i8, ptr %0, i64 28
  tail call void @llvm.memset.p0.i64(ptr noundef nonnull align 4 dereferenceable(92) %6, i8 0, i64 92, i1 false)
  ret void
}